target datalayout = "e-m:e-p270:32:32-p271:32:32-p272:64:64-i64:64-i128:128-f80:128-n8:16:32:64-S128"
target triple = "x86_64-pc-linux-gnu"

%struct.slurm_conf_t = type { i64, ptr, i16, ptr, ptr, ptr, ptr, ptr, i16, ptr, ptr, ptr, ptr, ptr, ptr, ptr, i16, ptr, ptr, ptr, ptr, i16, ptr, ptr, ptr, i64, ptr, ptr, ptr, ptr, i16, ptr, ptr, i16, i32, ptr, i32, ptr, i32, i32, ptr, ptr, i64, i64, ptr, i16, i16, ptr, i32, i32, ptr, i32, ptr, i32, i16, i16, i16, ptr, i16, i16, ptr, ptr, i32, i16, i16, ptr, i32, i16, ptr, ptr, ptr, ptr, i16, ptr, ptr, ptr, ptr, i32, ptr, ptr, ptr, ptr, i16, i16, ptr, i32, i32, i32, i16, i16, ptr, ptr, i16, ptr, ptr, i32, i32, i32, i32, i32, i64, i32, i32, i16, ptr, ptr, i32, ptr, ptr, ptr, i16, i32, ptr, ptr, i16, ptr, ptr, i32, i16, ptr, ptr, ptr, ptr, i32, i32, i16, i16, i32, ptr, i16, ptr, i32, i32, i32, i32, i32, i32, ptr, i16, ptr, ptr, i32, i16, ptr, i32, i16, i16, ptr, ptr, ptr, i16, ptr, ptr, ptr, ptr, i16, i16, ptr, i16, ptr, i16, ptr, i16, ptr, i16, ptr, ptr, ptr, ptr, i16, ptr, ptr, ptr, i32, ptr, i32, ptr, ptr, i16, ptr, ptr, i32, i16, ptr, ptr, i16, i16, ptr, i16, ptr, ptr, ptr, i32, ptr, i16, i16, ptr, ptr, ptr, ptr, ptr, ptr, ptr, ptr, i16, i32, i16, ptr, ptr, ptr, ptr, i32, ptr, ptr, ptr, i16, ptr, ptr, ptr, i16, ptr, i16, ptr, i16, i16, ptr }
%struct.node_record = type { ptr, ptr, i16, i64, i64, ptr, ptr, ptr, i16, ptr, i16, i16, i32, i32, i64, ptr, i16, i16, ptr, ptr, ptr, ptr, ptr, i64, i64, ptr, ptr, ptr, ptr, i32, ptr, ptr, i64, i64, i32, ptr, i64, ptr, i32, i16, ptr, ptr, i32, ptr, i32, i8, ptr, i32, i16, i16, ptr, i16, i64, i16, i64, ptr, i64, i32, i16, i64, i16, ptr, i16, i64, ptr, i64, i16, i32, i16, ptr, ptr, ptr, i16, i32, i16, i16, i32, ptr, i16, i32 }
%struct.slurmdb_event_cond_t = type { ptr, i32, i32, i32, i16, ptr, ptr, i64, i64, ptr, ptr, ptr }

@acct_db_conn = dso_local global ptr null, align 8
@running_cache = dso_local global i16 0, align 2
@slurm_conf = external global %struct.slurm_conf_t, align 8
@.str.133 = private unnamed_addr constant [10 x i8] c"node_name\00", align 1
@.str.134 = private unnamed_addr constant [3 x i8] c"%u\00", align 1
@.str.135 = private unnamed_addr constant [4 x i8] c"%lu\00", align 1
@.str.136 = private unnamed_addr constant [7 x i8] c"Future\00", align 1
@.str.137 = private unnamed_addr constant [13 x i8] c"Powered down\00", align 1

; Function Attrs: nounwind uwtable
define internal void @_send_future_cloud_to_db() #0 {
  %1 = alloca i64, align 8
  %2 = alloca ptr, align 8
  %3 = alloca ptr, align 8
  %4 = alloca i8, align 1
  %5 = alloca ptr, align 8
  %6 = alloca i32, align 4
  %7 = alloca %struct.slurmdb_event_cond_t, align 8
  call void @llvm.lifetime.start.p0(i64 8, ptr %1) #11
  %8 = call i64 @time(ptr noundef null) #11
  store i64 %8, ptr %1, align 8
  call void @llvm.lifetime.start.p0(i64 8, ptr %2) #11
  store ptr null, ptr %2, align 8
  call void @llvm.lifetime.start.p0(i64 8, ptr %3) #11
  store ptr null, ptr %3, align 8
  call void @llvm.lifetime.start.p0(i64 1, ptr %4) #11
  %9 = load i16, ptr @running_cache, align 2
  %10 = icmp ne i16 %9, 0
  %11 = xor i1 %10, true
  %12 = zext i1 %11 to i8
  store i8 %12, ptr %4, align 1
  call void @llvm.lifetime.start.p0(i64 8, ptr %5) #11
  call void @llvm.lifetime.start.p0(i64 4, ptr %6) #11
  store i32 0, ptr %6, align 4
  br label %13

13:                                               ; preds = %121, %0
  %14 = call ptr @next_node(ptr noundef %6)
  store ptr %14, ptr %5, align 8
  %15 = icmp ne ptr %14, null
  br i1 %15, label %17, label %16

16:                                               ; preds = %13
  call void @llvm.lifetime.end.p0(i64 4, ptr %6) #11
  br label %124

17:                                               ; preds = %13
  %18 = load ptr, ptr %5, align 8
  %19 = getelementptr inbounds nuw %struct.node_record, ptr %18, i32 0, i32 44
  %20 = load i32, ptr %19, align 8
  %21 = and i32 %20, 15
  %22 = icmp eq i32 %21, 6
  br i1 %22, label %31, label %23

23:                                               ; preds = %17
  %24 = load ptr, ptr %5, align 8
  %25 = getelementptr inbounds nuw %struct.node_record, ptr %24, i32 0, i32 44
  %26 = load i32, ptr %25, align 8
  %27 = zext i32 %26 to i64
  %28 = and i64 %27, 4096
  %29 = icmp ne i64 %28, 0
  br i1 %29, label %31, label %30

30:                                               ; preds = %23
  br label %121

31:                                               ; preds = %23, %17
  %32 = load i8, ptr %4, align 1, !range !8, !noundef !9
  %33 = trunc i8 %32 to i1
  br i1 %33, label %34, label %98

34:                                               ; preds = %31
  %35 = load ptr, ptr %3, align 8
  %36 = icmp ne ptr %35, null
  br i1 %36, label %98, label %37

37:                                               ; preds = %34
  call void @llvm.lifetime.start.p0(i64 80, ptr %7) #11
  call void @llvm.memset.p0.i64(ptr align 8 %7, i8 0, i64 80, i1 false)
  %38 = getelementptr inbounds nuw %struct.slurmdb_event_cond_t, ptr %7, i32 0, i32 4
  store i16 2, ptr %38, align 4
  %39 = getelementptr inbounds nuw %struct.slurmdb_event_cond_t, ptr %7, i32 0, i32 1
  store i32 1, ptr %39, align 8
  %40 = call ptr @list_create(ptr noundef @xfree_ptr)
  %41 = getelementptr inbounds nuw %struct.slurmdb_event_cond_t, ptr %7, i32 0, i32 0
  store ptr %40, ptr %41, align 8
  %42 = getelementptr inbounds nuw %struct.slurmdb_event_cond_t, ptr %7, i32 0, i32 0
  %43 = load ptr, ptr %42, align 8
  %44 = load ptr, ptr getelementptr inbounds nuw (%struct.slurm_conf_t, ptr @slurm_conf, i32 0, i32 31), align 8
  %45 = call ptr @xstrdup(ptr noundef %44)
  call void @list_append(ptr noundef %43, ptr noundef %45)
  %46 = call ptr @list_create(ptr noundef null)
  %47 = getelementptr inbounds nuw %struct.slurmdb_event_cond_t, ptr %7, i32 0, i32 5
  store ptr %46, ptr %47, align 8
  %48 = getelementptr inbounds nuw %struct.slurmdb_event_cond_t, ptr %7, i32 0, i32 5
  %49 = load ptr, ptr %48, align 8
  call void @list_append(ptr noundef %49, ptr noundef @.str.133)
  %50 = call ptr @list_create(ptr noundef @xfree_ptr)
  %51 = getelementptr inbounds nuw %struct.slurmdb_event_cond_t, ptr %7, i32 0, i32 11
  store ptr %50, ptr %51, align 8
  %52 = getelementptr inbounds nuw %struct.slurmdb_event_cond_t, ptr %7, i32 0, i32 11
  %53 = load ptr, ptr %52, align 8
  %54 = call ptr (ptr, ...) @xstrdup_printf(ptr noundef @.str.134, i32 noundef 6)
  call void @list_append(ptr noundef %53, ptr noundef %54)
  %55 = getelementptr inbounds nuw %struct.slurmdb_event_cond_t, ptr %7, i32 0, i32 11
  %56 = load ptr, ptr %55, align 8
  %57 = call ptr (ptr, ...) @xstrdup_printf(ptr noundef @.str.135, i64 noundef 4096)
  call void @list_append(ptr noundef %56, ptr noundef %57)
  %58 = load ptr, ptr @acct_db_conn, align 8
  %59 = call i32 @getuid() #11
  %60 = call ptr @acct_storage_g_get_events(ptr noundef %58, i32 noundef %59, ptr noundef %7)
  store ptr %60, ptr %3, align 8
  %61 = load ptr, ptr %3, align 8
  %62 = icmp ne ptr %61, null
  br i1 %62, label %64, label %63

63:                                               ; preds = %37
  store i8 0, ptr %4, align 1
  br label %64

64:                                               ; preds = %63, %37
  br label %65

65:                                               ; preds = %64
  %66 = getelementptr inbounds nuw %struct.slurmdb_event_cond_t, ptr %7, i32 0, i32 0
  %67 = load ptr, ptr %66, align 8
  %68 = icmp ne ptr %67, null
  br i1 %68, label %69, label %72

69:                                               ; preds = %65
  %70 = getelementptr inbounds nuw %struct.slurmdb_event_cond_t, ptr %7, i32 0, i32 0
  %71 = load ptr, ptr %70, align 8
  call void @list_destroy(ptr noundef %71)
  br label %72

72:                                               ; preds = %69, %65
  %73 = getelementptr inbounds nuw %struct.slurmdb_event_cond_t, ptr %7, i32 0, i32 0
  store ptr null, ptr %73, align 8
  br label %74

74:                                               ; preds = %72
  br label %75

75:                                               ; preds = %74
  br label %76

76:                                               ; preds = %75
  %77 = getelementptr inbounds nuw %struct.slurmdb_event_cond_t, ptr %7, i32 0, i32 5
  %78 = load ptr, ptr %77, align 8
  %79 = icmp ne ptr %78, null
  br i1 %79, label %80, label %83

80:                                               ; preds = %76
  %81 = getelementptr inbounds nuw %struct.slurmdb_event_cond_t, ptr %7, i32 0, i32 5
  %82 = load ptr, ptr %81, align 8
  call void @list_destroy(ptr noundef %82)
  br label %83

83:                                               ; preds = %80, %76
  %84 = getelementptr inbounds nuw %struct.slurmdb_event_cond_t, ptr %7, i32 0, i32 5
  store ptr null, ptr %84, align 8
  br label %85

85:                                               ; preds = %83
  br label %86

86:                                               ; preds = %85
  br label %87

87:                                               ; preds = %86
  %88 = getelementptr inbounds nuw %struct.slurmdb_event_cond_t, ptr %7, i32 0, i32 11
  %89 = load ptr, ptr %88, align 8
  %90 = icmp ne ptr %89, null
  br i1 %90, label %91, label %94

91:                                               ; preds = %87
  %92 = getelementptr inbounds nuw %struct.slurmdb_event_cond_t, ptr %7, i32 0, i32 11
  %93 = load ptr, ptr %92, align 8
  call void @list_destroy(ptr noundef %93)
  br label %94

94:                                               ; preds = %91, %87
  %95 = getelementptr inbounds nuw %struct.slurmdb_event_cond_t, ptr %7, i32 0, i32 11
  store ptr null, ptr %95, align 8
  br label %96

96:                                               ; preds = %94
  br label %97

97:                                               ; preds = %96
  call void @llvm.lifetime.end.p0(i64 80, ptr %7) #11
  br label %98

98:                                               ; preds = %97, %34, %31
  %99 = load ptr, ptr %3, align 8
  %100 = icmp ne ptr %99, null
  br i1 %100, label %101, label %109

101:                                              ; preds = %98
  %102 = load ptr, ptr %3, align 8
  %103 = load ptr, ptr %5, align 8
  %104 = getelementptr inbounds nuw %struct.node_record, ptr %103, i32 0, i32 37
  %105 = load ptr, ptr %104, align 8
  %106 = call ptr @list_find_first(ptr noundef %102, ptr noundef @_find_node_event, ptr noundef %105)
  store ptr %106, ptr %2, align 8
  %107 = icmp ne ptr %106, null
  br i1 %107, label %108, label %109

108:                                              ; preds = %101
  br label %121

109:                                              ; preds = %101, %98
  %110 = load ptr, ptr @acct_db_conn, align 8
  %111 = load ptr, ptr %5, align 8
  %112 = load i64, ptr %1, align 8
  %113 = load ptr, ptr %5, align 8
  %114 = getelementptr inbounds nuw %struct.node_record, ptr %113, i32 0, i32 44
  %115 = load i32, ptr %114, align 8
  %116 = and i32 %115, 15
  %117 = icmp eq i32 %116, 6
  %118 = select i1 %117, ptr @.str.136, ptr @.str.137
  %119 = load i32, ptr getelementptr inbounds nuw (%struct.slurm_conf_t, ptr @slurm_conf, i32 0, i32 173), align 8
  %120 = call i32 @clusteracct_storage_g_node_down(ptr noundef %110, ptr noundef %111, i64 noundef %112, ptr noundef %118, i32 noundef %119)
  br label %121

121:                                              ; preds = %109, %108, %30
  %122 = load i32, ptr %6, align 4
  %123 = add nsw i32 %122, 1
  store i32 %123, ptr %6, align 4
  br label %13, !llvm.loop !45

124:                                              ; preds = %16
  br label %125

125:                                              ; preds = %124
  %126 = load ptr, ptr %3, align 8
  %127 = icmp ne ptr %126, null
  br i1 %127, label %128, label %130

128:                                              ; preds = %125
  %129 = load ptr, ptr %3, align 8
  call void @list_destroy(ptr noundef %129)
  br label %130

130:                                              ; preds = %128, %125
  store ptr null, ptr %3, align 8
  br label %131

131:                                              ; preds = %130
  br label %132

132:                                              ; preds = %131
  call void @llvm.lifetime.end.p0(i64 8, ptr %5) #11
  call void @llvm.lifetime.end.p0(i64 1, ptr %4) #11
  call void @llvm.lifetime.end.p0(i64 8, ptr %3) #11
  call void @llvm.lifetime.end.p0(i64 8, ptr %2) #11
  call void @llvm.lifetime.end.p0(i64 8, ptr %1) #11
  ret void
}