; Function Attrs: nounwind uwtable
define internal fastcc void @_send_future_cloud_to_db() unnamed_addr #6 {
  %1 = alloca i32, align 4
  %2 = alloca %struct.slurmdb_event_cond_t, align 8
  %3 = tail call i64 @time(ptr noundef null) #19
  %4 = load i16, ptr @running_cache, align 2
  call void @llvm.lifetime.start.p0(i64 4, ptr nonnull %1) #19
  store i32 0, ptr %1, align 4
  %5 = call ptr @next_node(ptr noundef nonnull %1) #19
  %.not2130 = icmp eq ptr %5, null
  br i1 %.not2130, label %._crit_edge.thread, label %.lr.ph

._crit_edge.thread:                               ; preds = %0
  call void @llvm.lifetime.end.p0(i64 4, ptr nonnull %1) #19
  br label %58

.lr.ph:                                           ; preds = %0
  %.not20 = icmp eq i16 %4, 0
  %6 = getelementptr inbounds nuw i8, ptr %2, i64 20
  %7 = getelementptr inbounds nuw i8, ptr %2, i64 8
  %8 = getelementptr inbounds nuw i8, ptr %2, i64 24
  %9 = getelementptr inbounds nuw i8, ptr %2, i64 72
  br label %10

._crit_edge:                                      ; preds = %53
  call void @llvm.lifetime.end.p0(i64 4, ptr nonnull %1) #19
  %.not22 = icmp eq ptr %.114, null
  br i1 %.not22, label %58, label %57

10:                                               ; preds = %.lr.ph, %53
  %11 = phi ptr [ %5, %.lr.ph ], [ %56, %53 ]
  %.032 = phi i1 [ %.not20, %.lr.ph ], [ %.1, %53 ]
  %.01331 = phi ptr [ null, %.lr.ph ], [ %.114, %53 ]
  %12 = getelementptr inbounds nuw i8, ptr %11, i64 320
  %13 = load i32, ptr %12, align 8
  %14 = and i32 %13, 15
  %15 = icmp ne i32 %14, 6
  %16 = and i32 %13, 4096
  %.not23 = icmp eq i32 %16, 0
  %or.cond = and i1 %15, %.not23
  br i1 %or.cond, label %53, label %17

17:                                               ; preds = %10
  %18 = icmp eq ptr %.01331, null
  %or.cond.not = select i1 %.032, i1 %18, i1 false
  br i1 %or.cond.not, label %19, label %40

19:                                               ; preds = %17
  call void @llvm.lifetime.start.p0(i64 80, ptr nonnull %2) #19
  call void @llvm.memset.p0.i64(ptr noundef nonnull align 8 dereferenceable(80) %2, i8 0, i64 80, i1 false)
  store i16 2, ptr %6, align 4
  store i32 1, ptr %7, align 8
  %20 = call ptr @list_create(ptr noundef nonnull @xfree_ptr) #19
  store ptr %20, ptr %2, align 8
  %21 = load ptr, ptr getelementptr inbounds nuw (i8, ptr @slurm_conf, i64 248), align 8
  %22 = call ptr @xstrdup(ptr noundef %21) #19
  call void @list_append(ptr noundef %20, ptr noundef %22) #19
  %23 = call ptr @list_create(ptr noundef null) #19
  store ptr %23, ptr %8, align 8
  call void @list_append(ptr noundef %23, ptr noundef nonnull @.str.133) #19
  %24 = call ptr @list_create(ptr noundef nonnull @xfree_ptr) #19
  store ptr %24, ptr %9, align 8
  %25 = call ptr (ptr, ...) @xstrdup_printf(ptr noundef nonnull @.str.134, i32 noundef 6) #19
  call void @list_append(ptr noundef %24, ptr noundef %25) #19
  %26 = load ptr, ptr %9, align 8
  %27 = call ptr (ptr, ...) @xstrdup_printf(ptr noundef nonnull @.str.135, i64 noundef 4096) #19
  call void @list_append(ptr noundef %26, ptr noundef %27) #19
  %28 = load ptr, ptr @acct_db_conn, align 8
  %29 = call i32 @getuid() #19
  %30 = call ptr @acct_storage_g_get_events(ptr noundef %28, i32 noundef %29, ptr noundef nonnull %2) #19
  %.not = icmp ne ptr %30, null
  %31 = load ptr, ptr %2, align 8
  %.not25 = icmp eq ptr %31, null
  br i1 %.not25, label %33, label %32

32:                                               ; preds = %19
  call void @list_destroy(ptr noundef nonnull %31) #19
  br label %33

33:                                               ; preds = %32, %19
  store ptr null, ptr %2, align 8
  %34 = load ptr, ptr %8, align 8
  %.not26 = icmp eq ptr %34, null
  br i1 %.not26, label %36, label %35

35:                                               ; preds = %33
  call void @list_destroy(ptr noundef nonnull %34) #19
  br label %36

36:                                               ; preds = %35, %33
  store ptr null, ptr %8, align 8
  %37 = load ptr, ptr %9, align 8
  %.not27 = icmp eq ptr %37, null
  br i1 %.not27, label %39, label %38

38:                                               ; preds = %36
  call void @list_destroy(ptr noundef nonnull %37) #19
  br label %39

39:                                               ; preds = %38, %36
  call void @llvm.lifetime.end.p0(i64 80, ptr nonnull %2) #19
  br label %40

40:                                               ; preds = %39, %17
  %.215 = phi ptr [ %.01331, %17 ], [ %30, %39 ]
  %.2 = phi i1 [ %.032, %17 ], [ %.not, %39 ]
  %.not28 = icmp eq ptr %.215, null
  br i1 %.not28, label %45, label %41

41:                                               ; preds = %40
  %42 = getelementptr inbounds nuw i8, ptr %11, i64 272
  %43 = load ptr, ptr %42, align 8
  %44 = call ptr @list_find_first(ptr noundef nonnull %.215, ptr noundef nonnull @_find_node_event, ptr noundef %43) #19
  %.not29 = icmp eq ptr %44, null
  br i1 %.not29, label %45, label %53

45:                                               ; preds = %41, %40
  %46 = load ptr, ptr @acct_db_conn, align 8
  %47 = load i32, ptr %12, align 8
  %48 = and i32 %47, 15
  %49 = icmp eq i32 %48, 6
  %50 = select i1 %49, ptr @.str.136, ptr @.str.137
  %51 = load i32, ptr getelementptr inbounds nuw (i8, ptr @slurm_conf, i64 1152), align 8
  %52 = call i32 @clusteracct_storage_g_node_down(ptr noundef %46, ptr noundef nonnull %11, i64 noundef %3, ptr noundef nonnull %50, i32 noundef %51) #19
  br label %53

53:                                               ; preds = %10, %41, %45
  %.114 = phi ptr [ %.215, %41 ], [ %.215, %45 ], [ %.01331, %10 ]
  %.1 = phi i1 [ %.2, %41 ], [ %.2, %45 ], [ %.032, %10 ]
  %54 = load i32, ptr %1, align 4
  %55 = add nsw i32 %54, 1
  store i32 %55, ptr %1, align 4
  %56 = call ptr @next_node(ptr noundef nonnull %1) #19
  %.not21 = icmp eq ptr %56, null
  br i1 %.not21, label %._crit_edge, label %10, !llvm.loop !45

57:                                               ; preds = %._crit_edge
  call void @list_destroy(ptr noundef nonnull %.114) #19
  br label %58

58:                                               ; preds = %._crit_edge.thread, %57, %._crit_edge
  ret void
}